target datalayout = "e-m:e-p270:32:32-p271:32:32-p272:64:64-i64:64-i128:128-f80:128-n8:16:32:64-S128"
target triple = "x86_64-pc-linux-gnu"

%struct.PatternInfoArray = type { ptr, i64 }
%struct.AmcheckOptions = type { i8, i8, i8, i8, i8, i8, i32, i8, ptr, %struct.PatternInfoArray, %struct.PatternInfoArray, i8, i8, i8, i8, i8, i8, i8, i64, i64, ptr, i8, i8, i8, i8, i8 }

@progress_since_last_stderr = internal global i8 0, align 1
@stderr = external global ptr, align 8
@.str.81 = private unnamed_addr constant [1 x i8] zeroinitializer, align 1
@last_progress_report = internal global i64 0, align 8
@.str.149 = private unnamed_addr constant [4 x i8] c"%lu\00", align 1
@.str.150 = private unnamed_addr constant [49 x i8] c"%*s/%s relations (%d%%), %*s/%s pages (%d%%) %*s\00", align 1
@.str.151 = private unnamed_addr constant [56 x i8] c"%*s/%s relations (%d%%), %*s/%s pages (%d%%) (%s%-*.*s)\00", align 1
@.str.152 = private unnamed_addr constant [4 x i8] c"...\00", align 1
@.str.153 = private unnamed_addr constant [45 x i8] c"%*s/%s relations (%d%%), %*s/%s pages (%d%%)\00", align 1

; Function Attrs: nounwind uwtable
define internal void @progress_report(i64 noundef %0, i64 noundef %1, i64 noundef %2, i64 noundef %3, ptr noundef %4, i1 noundef zeroext %5, i1 noundef zeroext %6) #0 {
  %8 = alloca i64, align 8
  %9 = alloca i64, align 8
  %10 = alloca i64, align 8
  %11 = alloca i64, align 8
  %12 = alloca ptr, align 8
  %13 = alloca i8, align 1
  %14 = alloca i8, align 1
  %15 = alloca i32, align 4
  %16 = alloca i32, align 4
  %17 = alloca [32 x i8], align 16
  %18 = alloca [32 x i8], align 16
  %19 = alloca [32 x i8], align 16
  %20 = alloca [32 x i8], align 16
  %21 = alloca i64, align 8
  %22 = alloca i32, align 4
  %23 = alloca i8, align 1
  store i64 %0, ptr %8, align 8
  store i64 %1, ptr %9, align 8
  store i64 %2, ptr %10, align 8
  store i64 %3, ptr %11, align 8
  store ptr %4, ptr %12, align 8
  %24 = zext i1 %5 to i8
  store i8 %24, ptr %13, align 1
  %25 = zext i1 %6 to i8
  store i8 %25, ptr %14, align 1
  call void @llvm.lifetime.start.p0(i64 4, ptr %15) #10
  store i32 0, ptr %15, align 4
  call void @llvm.lifetime.start.p0(i64 4, ptr %16) #10
  store i32 0, ptr %16, align 4
  call void @llvm.lifetime.start.p0(i64 32, ptr %17) #10
  call void @llvm.lifetime.start.p0(i64 32, ptr %18) #10
  call void @llvm.lifetime.start.p0(i64 32, ptr %19) #10
  call void @llvm.lifetime.start.p0(i64 32, ptr %20) #10
  call void @llvm.lifetime.start.p0(i64 8, ptr %21) #10
  %26 = load i8, ptr getelementptr inbounds nuw (%struct.AmcheckOptions, ptr @opts, i32 0, i32 5), align 1, !range !6, !noundef !7
  %27 = trunc i8 %26 to i1
  br i1 %27, label %29, label %28

28:                                               ; preds = %7
  store i32 1, ptr %22, align 4
  br label %165

29:                                               ; preds = %7
  %30 = call i64 @time(ptr noundef null) #10
  store i64 %30, ptr %21, align 8
  %31 = load i64, ptr %21, align 8
  %32 = load i64, ptr @last_progress_report, align 8
  %33 = icmp eq i64 %31, %32
  br i1 %33, label %34, label %41

34:                                               ; preds = %29
  %35 = load i8, ptr %13, align 1, !range !6, !noundef !7
  %36 = trunc i8 %35 to i1
  br i1 %36, label %41, label %37

37:                                               ; preds = %34
  %38 = load i8, ptr %14, align 1, !range !6, !noundef !7
  %39 = trunc i8 %38 to i1
  br i1 %39, label %41, label %40

40:                                               ; preds = %37
  store i32 1, ptr %22, align 4
  br label %165

41:                                               ; preds = %37, %34, %29
  %42 = load i64, ptr %21, align 8
  store i64 %42, ptr @last_progress_report, align 8
  %43 = load i64, ptr %8, align 8
  %44 = icmp ne i64 %43, 0
  br i1 %44, label %45, label %51

45:                                               ; preds = %41
  %46 = load i64, ptr %9, align 8
  %47 = mul i64 %46, 100
  %48 = load i64, ptr %8, align 8
  %49 = udiv i64 %47, %48
  %50 = trunc i64 %49 to i32
  store i32 %50, ptr %15, align 4
  br label %51

51:                                               ; preds = %45, %41
  %52 = load i64, ptr %10, align 8
  %53 = icmp ne i64 %52, 0
  br i1 %53, label %54, label %60

54:                                               ; preds = %51
  %55 = load i64, ptr %11, align 8
  %56 = mul i64 %55, 100
  %57 = load i64, ptr %10, align 8
  %58 = udiv i64 %56, %57
  %59 = trunc i64 %58 to i32
  store i32 %59, ptr %16, align 4
  br label %60

60:                                               ; preds = %54, %51
  %61 = getelementptr inbounds [32 x i8], ptr %17, i64 0, i64 0
  %62 = load i64, ptr %9, align 8
  %63 = call i32 (ptr, i64, ptr, ...) @pg_snprintf(ptr noundef %61, i64 noundef 32, ptr noundef @.str.149, i64 noundef %62)
  %64 = getelementptr inbounds [32 x i8], ptr %18, i64 0, i64 0
  %65 = load i64, ptr %8, align 8
  %66 = call i32 (ptr, i64, ptr, ...) @pg_snprintf(ptr noundef %64, i64 noundef 32, ptr noundef @.str.149, i64 noundef %65)
  %67 = getelementptr inbounds [32 x i8], ptr %19, i64 0, i64 0
  %68 = load i64, ptr %11, align 8
  %69 = call i32 (ptr, i64, ptr, ...) @pg_snprintf(ptr noundef %67, i64 noundef 32, ptr noundef @.str.149, i64 noundef %68)
  %70 = getelementptr inbounds [32 x i8], ptr %20, i64 0, i64 0
  %71 = load i64, ptr %10, align 8
  %72 = call i32 (ptr, i64, ptr, ...) @pg_snprintf(ptr noundef %70, i64 noundef 32, ptr noundef @.str.149, i64 noundef %71)
  %73 = load i8, ptr getelementptr inbounds nuw (%struct.AmcheckOptions, ptr @opts, i32 0, i32 3), align 1, !range !6, !noundef !7
  %74 = trunc i8 %73 to i1
  br i1 %74, label %75, label %135

75:                                               ; preds = %60
  %76 = load ptr, ptr %12, align 8
  %77 = icmp ne ptr %76, null
  br i1 %77, label %93, label %78

78:                                               ; preds = %75
  %79 = load ptr, ptr @stderr, align 8
  %80 = getelementptr inbounds [32 x i8], ptr %18, i64 0, i64 0
  %81 = call i64 @strlen(ptr noundef %80) #13
  %82 = trunc i64 %81 to i32
  %83 = getelementptr inbounds [32 x i8], ptr %17, i64 0, i64 0
  %84 = getelementptr inbounds [32 x i8], ptr %18, i64 0, i64 0
  %85 = load i32, ptr %15, align 4
  %86 = getelementptr inbounds [32 x i8], ptr %20, i64 0, i64 0
  %87 = call i64 @strlen(ptr noundef %86) #13
  %88 = trunc i64 %87 to i32
  %89 = getelementptr inbounds [32 x i8], ptr %19, i64 0, i64 0
  %90 = getelementptr inbounds [32 x i8], ptr %20, i64 0, i64 0
  %91 = load i32, ptr %16, align 4
  %92 = call i32 (ptr, ptr, ...) @pg_fprintf(ptr noundef %79, ptr noundef @.str.150, i32 noundef %82, ptr noundef %83, ptr noundef %84, i32 noundef %85, i32 noundef %88, ptr noundef %89, ptr noundef %90, i32 noundef %91, i32 noundef 37, ptr noundef @.str.81)
  br label %134

93:                                               ; preds = %75
  call void @llvm.lifetime.start.p0(i64 1, ptr %23) #10
  %94 = load ptr, ptr %12, align 8
  %95 = call i64 @strlen(ptr noundef %94) #13
  %96 = icmp ugt i64 %95, 35
  %97 = zext i1 %96 to i8
  store i8 %97, ptr %23, align 1
  %98 = load ptr, ptr @stderr, align 8
  %99 = getelementptr inbounds [32 x i8], ptr %18, i64 0, i64 0
  %100 = call i64 @strlen(ptr noundef %99) #13
  %101 = trunc i64 %100 to i32
  %102 = getelementptr inbounds [32 x i8], ptr %17, i64 0, i64 0
  %103 = getelementptr inbounds [32 x i8], ptr %18, i64 0, i64 0
  %104 = load i32, ptr %15, align 4
  %105 = getelementptr inbounds [32 x i8], ptr %20, i64 0, i64 0
  %106 = call i64 @strlen(ptr noundef %105) #13
  %107 = trunc i64 %106 to i32
  %108 = getelementptr inbounds [32 x i8], ptr %19, i64 0, i64 0
  %109 = getelementptr inbounds [32 x i8], ptr %20, i64 0, i64 0
  %110 = load i32, ptr %16, align 4
  %111 = load i8, ptr %23, align 1, !range !6, !noundef !7
  %112 = trunc i8 %111 to i1
  %113 = select i1 %112, ptr @.str.152, ptr @.str.81
  %114 = load i8, ptr %23, align 1, !range !6, !noundef !7
  %115 = trunc i8 %114 to i1
  %116 = select i1 %115, i32 32, i32 35
  %117 = load i8, ptr %23, align 1, !range !6, !noundef !7
  %118 = trunc i8 %117 to i1
  %119 = select i1 %118, i32 32, i32 35
  %120 = load i8, ptr %23, align 1, !range !6, !noundef !7
  %121 = trunc i8 %120 to i1
  br i1 %121, label %122, label %129

122:                                              ; preds = %93
  %123 = load ptr, ptr %12, align 8
  %124 = load ptr, ptr %12, align 8
  %125 = call i64 @strlen(ptr noundef %124) #13
  %126 = getelementptr inbounds nuw i8, ptr %123, i64 %125
  %127 = getelementptr inbounds i8, ptr %126, i64 -35
  %128 = getelementptr inbounds i8, ptr %127, i64 3
  br label %131

129:                                              ; preds = %93
  %130 = load ptr, ptr %12, align 8
  br label %131

131:                                              ; preds = %129, %122
  %132 = phi ptr [ %128, %122 ], [ %130, %129 ]
  %133 = call i32 (ptr, ptr, ...) @pg_fprintf(ptr noundef %98, ptr noundef @.str.151, i32 noundef %101, ptr noundef %102, ptr noundef %103, i32 noundef %104, i32 noundef %107, ptr noundef %108, ptr noundef %109, i32 noundef %110, ptr noundef %113, i32 noundef %116, i32 noundef %119, ptr noundef %132)
  call void @llvm.lifetime.end.p0(i64 1, ptr %23) #10
  br label %134

134:                                              ; preds = %131, %78
  br label %150

135:                                              ; preds = %60
  %136 = load ptr, ptr @stderr, align 8
  %137 = getelementptr inbounds [32 x i8], ptr %18, i64 0, i64 0
  %138 = call i64 @strlen(ptr noundef %137) #13
  %139 = trunc i64 %138 to i32
  %140 = getelementptr inbounds [32 x i8], ptr %17, i64 0, i64 0
  %141 = getelementptr inbounds [32 x i8], ptr %18, i64 0, i64 0
  %142 = load i32, ptr %15, align 4
  %143 = getelementptr inbounds [32 x i8], ptr %20, i64 0, i64 0
  %144 = call i64 @strlen(ptr noundef %143) #13
  %145 = trunc i64 %144 to i32
  %146 = getelementptr inbounds [32 x i8], ptr %19, i64 0, i64 0
  %147 = getelementptr inbounds [32 x i8], ptr %20, i64 0, i64 0
  %148 = load i32, ptr %16, align 4
  %149 = call i32 (ptr, ptr, ...) @pg_fprintf(ptr noundef %136, ptr noundef @.str.153, i32 noundef %139, ptr noundef %140, ptr noundef %141, i32 noundef %142, i32 noundef %145, ptr noundef %146, ptr noundef %147, i32 noundef %148)
  br label %150

150:                                              ; preds = %135, %134
  %151 = load i8, ptr %14, align 1, !range !6, !noundef !7
  %152 = trunc i8 %151 to i1
  br i1 %152, label %161, label %153

153:                                              ; preds = %150
  %154 = load ptr, ptr @stderr, align 8
  %155 = call i32 @fileno(ptr noundef %154) #10
  %156 = call i32 @isatty(i32 noundef %155) #10
  %157 = icmp ne i32 %156, 0
  br i1 %157, label %158, label %161

158:                                              ; preds = %153
  %159 = load ptr, ptr @stderr, align 8
  %160 = call i32 @fputc(i32 noundef 13, ptr noundef %159)
  store i8 1, ptr @progress_since_last_stderr, align 1
  br label %164

161:                                              ; preds = %153, %150
  %162 = load ptr, ptr @stderr, align 8
  %163 = call i32 @fputc(i32 noundef 10, ptr noundef %162)
  br label %164

164:                                              ; preds = %161, %158
  store i32 0, ptr %22, align 4
  br label %165

165:                                              ; preds = %164, %40, %28
  call void @llvm.lifetime.end.p0(i64 8, ptr %21) #10
  call void @llvm.lifetime.end.p0(i64 32, ptr %20) #10
  call void @llvm.lifetime.end.p0(i64 32, ptr %19) #10
  call void @llvm.lifetime.end.p0(i64 32, ptr %18) #10
  call void @llvm.lifetime.end.p0(i64 32, ptr %17) #10
  call void @llvm.lifetime.end.p0(i64 4, ptr %16) #10
  call void @llvm.lifetime.end.p0(i64 4, ptr %15) #10
  %166 = load i32, ptr %22, align 4
  switch i32 %166, label %168 [
    i32 0, label %167
    i32 1, label %167
  ]

167:                                              ; preds = %165, %165
  ret void

168:                                              ; preds = %165
  unreachable
}