; Function Attrs: nounwind uwtable
define internal fastcc void @progress_report(i64 noundef range(i64 1, 0) %0, i64 noundef %1, i64 noundef %2, i64 noundef %3, ptr noundef %4, i1 noundef zeroext %5, i1 noundef zeroext %6) unnamed_addr #0 {
  %8 = alloca [32 x i8], align 16
  %9 = alloca [32 x i8], align 16
  %10 = alloca [32 x i8], align 16
  %11 = alloca [32 x i8], align 16
  call void @llvm.lifetime.start.p0(i64 32, ptr nonnull %8) #11
  call void @llvm.lifetime.start.p0(i64 32, ptr nonnull %9) #11
  call void @llvm.lifetime.start.p0(i64 32, ptr nonnull %10) #11
  call void @llvm.lifetime.start.p0(i64 32, ptr nonnull %11) #11
  %12 = load i8, ptr getelementptr inbounds nuw (i8, ptr @opts, i64 5), align 1, !range !6, !noundef !7
  %13 = trunc nuw i8 %12 to i1
  br i1 %13, label %14, label %73

14:                                               ; preds = %7
  %15 = tail call i64 @time(ptr noundef null) #11
  %16 = load i64, ptr @last_progress_report, align 8
  %17 = icmp ne i64 %15, %16
  %brmerge = or i1 %5, %17
  %brmerge37 = or i1 %6, %brmerge
  br i1 %brmerge37, label %18, label %73

18:                                               ; preds = %14
  store i64 %15, ptr @last_progress_report, align 8
  %19 = mul i64 %1, 100
  %20 = udiv i64 %19, %0
  %21 = trunc i64 %20 to i32
  %.not = icmp eq i64 %2, 0
  br i1 %.not, label %26, label %22

22:                                               ; preds = %18
  %23 = mul i64 %3, 100
  %24 = udiv i64 %23, %2
  %25 = trunc i64 %24 to i32
  br label %26

26:                                               ; preds = %22, %18
  %.029 = phi i32 [ %25, %22 ], [ 0, %18 ]
  %27 = call i32 (ptr, i64, ptr, ...) @pg_snprintf(ptr noundef nonnull %8, i64 noundef 32, ptr noundef nonnull @.str.149, i64 noundef %1) #11
  %28 = call i32 (ptr, i64, ptr, ...) @pg_snprintf(ptr noundef nonnull %9, i64 noundef 32, ptr noundef nonnull @.str.149, i64 noundef %0) #11
  %29 = call i32 (ptr, i64, ptr, ...) @pg_snprintf(ptr noundef nonnull %10, i64 noundef 32, ptr noundef nonnull @.str.149, i64 noundef %3) #11
  %30 = call i32 (ptr, i64, ptr, ...) @pg_snprintf(ptr noundef nonnull %11, i64 noundef 32, ptr noundef nonnull @.str.149, i64 noundef %2) #11
  %31 = load i8, ptr getelementptr inbounds nuw (i8, ptr @opts, i64 3), align 1, !range !6, !noundef !7
  %32 = trunc nuw i8 %31 to i1
  br i1 %32, label %33, label %55

33:                                               ; preds = %26
  %.not34 = icmp eq ptr %4, null
  br i1 %.not34, label %34, label %41

34:                                               ; preds = %33
  %35 = load ptr, ptr @stderr, align 8
  %36 = call i64 @strlen(ptr noundef nonnull dereferenceable(1) %9) #15
  %37 = trunc i64 %36 to i32
  %38 = call i64 @strlen(ptr noundef nonnull dereferenceable(1) %11) #15
  %39 = trunc i64 %38 to i32
  %40 = call i32 (ptr, ptr, ...) @pg_fprintf(ptr noundef %35, ptr noundef nonnull @.str.150, i32 noundef %37, ptr noundef nonnull %8, ptr noundef nonnull %9, i32 noundef %21, i32 noundef %39, ptr noundef nonnull %10, ptr noundef nonnull %11, i32 noundef %.029, i32 noundef 37, ptr noundef nonnull @.str.81) #11
  br label %62

41:                                               ; preds = %33
  %42 = call i64 @strlen(ptr noundef nonnull dereferenceable(1) %4) #15
  %43 = icmp ugt i64 %42, 35
  %44 = load ptr, ptr @stderr, align 8
  %45 = call i64 @strlen(ptr noundef nonnull dereferenceable(1) %9) #15
  %46 = trunc i64 %45 to i32
  %47 = call i64 @strlen(ptr noundef nonnull dereferenceable(1) %11) #15
  %48 = trunc i64 %47 to i32
  %49 = select i1 %43, ptr @.str.152, ptr @.str.81
  %50 = select i1 %43, i32 32, i32 35
  %51 = getelementptr inbounds nuw i8, ptr %4, i64 %42
  %52 = getelementptr inbounds i8, ptr %51, i64 -32
  %53 = select i1 %43, ptr %52, ptr %4
  %54 = call i32 (ptr, ptr, ...) @pg_fprintf(ptr noundef %44, ptr noundef nonnull @.str.151, i32 noundef %46, ptr noundef nonnull %8, ptr noundef nonnull %9, i32 noundef %21, i32 noundef %48, ptr noundef nonnull %10, ptr noundef nonnull %11, i32 noundef %.029, ptr noundef nonnull %49, i32 noundef %50, i32 noundef %50, ptr noundef nonnull %53) #11
  br label %62

55:                                               ; preds = %26
  %56 = load ptr, ptr @stderr, align 8
  %57 = call i64 @strlen(ptr noundef nonnull dereferenceable(1) %9) #15
  %58 = trunc i64 %57 to i32
  %59 = call i64 @strlen(ptr noundef nonnull dereferenceable(1) %11) #15
  %60 = trunc i64 %59 to i32
  %61 = call i32 (ptr, ptr, ...) @pg_fprintf(ptr noundef %56, ptr noundef nonnull @.str.153, i32 noundef %58, ptr noundef nonnull %8, ptr noundef nonnull %9, i32 noundef %21, i32 noundef %60, ptr noundef nonnull %10, ptr noundef nonnull %11, i32 noundef %.029) #11
  br label %62

62:                                               ; preds = %34, %41, %55
  br i1 %6, label %70, label %63

63:                                               ; preds = %62
  %64 = load ptr, ptr @stderr, align 8
  %65 = call i32 @fileno(ptr noundef %64) #11
  %66 = call i32 @isatty(i32 noundef %65) #11
  %.not35 = icmp eq i32 %66, 0
  br i1 %.not35, label %70, label %67

67:                                               ; preds = %63
  %68 = load ptr, ptr @stderr, align 8
  %69 = call i32 @fputc(i32 noundef 13, ptr noundef %68)
  store i1 true, ptr @progress_since_last_stderr, align 1
  br label %73

70:                                               ; preds = %63, %62
  %71 = load ptr, ptr @stderr, align 8
  %72 = call i32 @fputc(i32 noundef 10, ptr noundef %71)
  br label %73

73:                                               ; preds = %67, %70, %14, %7
  call void @llvm.lifetime.end.p0(i64 32, ptr nonnull %11) #11
  call void @llvm.lifetime.end.p0(i64 32, ptr nonnull %10) #11
  call void @llvm.lifetime.end.p0(i64 32, ptr nonnull %9) #11
  call void @llvm.lifetime.end.p0(i64 32, ptr nonnull %8) #11
  ret void
}